target datalayout = "e-m:e-p270:32:32-p271:32:32-p272:64:64-i64:64-i128:128-f80:128-n8:16:32:64-S128"
target triple = "x86_64-pc-linux-gnu"

%"class.ue2::DefaultConstComponentVisitor" = type { %"class.ue2::ConstComponentVisitor" }
%"class.ue2::ConstComponentVisitor" = type { ptr }
%"class.ue2::(anonymous namespace)::SafeReferentVisitor" = type { %"class.ue2::DefaultConstComponentVisitor", i64, %"class.std::stack" }
%"class.std::stack" = type { %"class.std::deque" }
%"class.std::deque" = type { %"class.std::_Deque_base" }
%"class.std::_Deque_base" = type { %"struct.std::_Deque_base<unsigned long, std::allocator<unsigned long>>::_Deque_impl" }
%"struct.std::_Deque_base<unsigned long, std::allocator<unsigned long>>::_Deque_impl" = type { %"struct.std::_Deque_base<unsigned long, std::allocator<unsigned long>>::_Deque_impl_data" }
%"struct.std::_Deque_base<unsigned long, std::allocator<unsigned long>>::_Deque_impl_data" = type { ptr, i64, %"struct.std::_Deque_iterator", %"struct.std::_Deque_iterator" }
%"struct.std::_Deque_iterator" = type { ptr, ptr, ptr, ptr }
%"struct.std::pair" = type { i32, i32 }

; Function Attrs: mustprogress nounwind uwtable
define linkonce_odr dso_local void @_ZNSt15__new_allocatorImE10deallocateEPmm(ptr noundef nonnull align 1 dereferenceable(1) %0, ptr noundef %1, i64 noundef %2) #1 comdat align 2 {
  %4 = alloca ptr, align 8
  %5 = alloca ptr, align 8
  %6 = alloca i64, align 8
  store ptr %0, ptr %4, align 8
  store ptr %1, ptr %5, align 8
  store i64 %2, ptr %6, align 8
  %7 = load ptr, ptr %5, align 8
  call void @_ZdlPv(ptr noundef %7) #17
  ret void
}

; Function Attrs: mustprogress uwtable
define linkonce_odr dso_local void @_ZNSt16allocator_traitsISaImEE10deallocateERS0_Pmm(ptr noundef nonnull align 1 dereferenceable(1) %0, ptr noundef %1, i64 noundef %2) #3 comdat align 2 {
  %4 = alloca ptr, align 8
  %5 = alloca ptr, align 8
  %6 = alloca i64, align 8
  store ptr %0, ptr %4, align 8
  store ptr %1, ptr %5, align 8
  store i64 %2, ptr %6, align 8
  %7 = load ptr, ptr %4, align 8
  %8 = load ptr, ptr %5, align 8
  %9 = load i64, ptr %6, align 8
  call void @_ZNSt15__new_allocatorImE10deallocateEPmm(ptr noundef nonnull align 1 dereferenceable(1) %7, ptr noundef %8, i64 noundef %9)
  ret void
}

; Function Attrs: inlinehint mustprogress nounwind uwtable
define linkonce_odr dso_local noundef i64 @_ZSt16__deque_buf_sizem(i64 noundef %0) #7 comdat {
  %2 = alloca i64, align 8
  store i64 %0, ptr %2, align 8
  %3 = load i64, ptr %2, align 8
  %4 = icmp ult i64 %3, 512
  br i1 %4, label %5, label %8

5:                                                ; preds = %1
  %6 = load i64, ptr %2, align 8
  %7 = udiv i64 512, %6
  br label %9

8:                                                ; preds = %1
  br label %9

9:                                                ; preds = %8, %5
  %10 = phi i64 [ %7, %5 ], [ 1, %8 ]
  ret i64 %10
}

; Function Attrs: mustprogress nounwind uwtable
define linkonce_odr dso_local noundef i64 @_ZNSt15_Deque_iteratorImRmPmE14_S_buffer_sizeEv() #1 comdat align 2 {
  %1 = call noundef i64 @_ZSt16__deque_buf_sizem(i64 noundef 8)
  ret i64 %1
}

; Function Attrs: mustprogress nounwind uwtable
define linkonce_odr dso_local void @_ZNSt11_Deque_baseImSaImEE18_M_deallocate_nodeEPm(ptr noundef nonnull align 8 dereferenceable(80) %0, ptr noundef %1) #1 comdat align 2 personality ptr @__gxx_personality_v0 {
  %3 = alloca ptr, align 8
  %4 = alloca ptr, align 8
  store ptr %0, ptr %3, align 8
  store ptr %1, ptr %4, align 8
  %5 = load ptr, ptr %3, align 8
  %6 = getelementptr inbounds nuw %"class.std::_Deque_base", ptr %5, i32 0, i32 0
  %7 = load ptr, ptr %4, align 8
  %8 = call noundef i64 @_ZSt16__deque_buf_sizem(i64 noundef 8)
  invoke void @_ZNSt16allocator_traitsISaImEE10deallocateERS0_Pmm(ptr noundef nonnull align 1 dereferenceable(1) %6, ptr noundef %7, i64 noundef %8)
          to label %9 unwind label %10

9:                                                ; preds = %2
  ret void

10:                                               ; preds = %2
  %11 = landingpad { ptr, i32 }
          catch ptr null
  %12 = extractvalue { ptr, i32 } %11, 0
  call void @__clang_call_terminate(ptr %12) #19
  unreachable
}

; Function Attrs: mustprogress nounwind uwtable
define linkonce_odr dso_local void @_ZNSt15__new_allocatorImE7destroyImEEvPT_(ptr noundef nonnull align 1 dereferenceable(1) %0, ptr noundef %1) #1 comdat align 2 {
  %3 = alloca ptr, align 8
  %4 = alloca ptr, align 8
  store ptr %0, ptr %3, align 8
  store ptr %1, ptr %4, align 8
  ret void
}

; Function Attrs: mustprogress nounwind uwtable
define linkonce_odr dso_local void @_ZNSt15_Deque_iteratorImRmPmE11_M_set_nodeEPS1_(ptr noundef nonnull align 8 dereferenceable(32) %0, ptr noundef %1) #1 comdat align 2 {
  %3 = alloca ptr, align 8
  %4 = alloca ptr, align 8
  store ptr %0, ptr %3, align 8
  store ptr %1, ptr %4, align 8
  %5 = load ptr, ptr %3, align 8
  %6 = load ptr, ptr %4, align 8
  %7 = getelementptr inbounds nuw %"struct.std::_Deque_iterator", ptr %5, i32 0, i32 3
  store ptr %6, ptr %7, align 8
  %8 = load ptr, ptr %4, align 8
  %9 = load ptr, ptr %8, align 8
  %10 = getelementptr inbounds nuw %"struct.std::_Deque_iterator", ptr %5, i32 0, i32 1
  store ptr %9, ptr %10, align 8
  %11 = getelementptr inbounds nuw %"struct.std::_Deque_iterator", ptr %5, i32 0, i32 1
  %12 = load ptr, ptr %11, align 8
  %13 = call noundef i64 @_ZNSt15_Deque_iteratorImRmPmE14_S_buffer_sizeEv() #16
  %14 = getelementptr inbounds i64, ptr %12, i64 %13
  %15 = getelementptr inbounds nuw %"struct.std::_Deque_iterator", ptr %5, i32 0, i32 2
  store ptr %14, ptr %15, align 8
  ret void
}

; Function Attrs: mustprogress nounwind uwtable
define linkonce_odr dso_local void @_ZNSt15_Deque_iteratorImRmPmEC2ERKS2_(ptr noundef nonnull align 8 dereferenceable(32) %0, ptr noundef nonnull align 8 dereferenceable(32) %1) unnamed_addr #1 comdat align 2 {
  %3 = alloca ptr, align 8
  %4 = alloca ptr, align 8
  store ptr %0, ptr %3, align 8
  store ptr %1, ptr %4, align 8
  %5 = load ptr, ptr %3, align 8
  %6 = getelementptr inbounds nuw %"struct.std::_Deque_iterator", ptr %5, i32 0, i32 0
  %7 = load ptr, ptr %4, align 8
  %8 = getelementptr inbounds nuw %"struct.std::_Deque_iterator", ptr %7, i32 0, i32 0
  %9 = load ptr, ptr %8, align 8
  store ptr %9, ptr %6, align 8
  %10 = getelementptr inbounds nuw %"struct.std::_Deque_iterator", ptr %5, i32 0, i32 1
  %11 = load ptr, ptr %4, align 8
  %12 = getelementptr inbounds nuw %"struct.std::_Deque_iterator", ptr %11, i32 0, i32 1
  %13 = load ptr, ptr %12, align 8
  store ptr %13, ptr %10, align 8
  %14 = getelementptr inbounds nuw %"struct.std::_Deque_iterator", ptr %5, i32 0, i32 2
  %15 = load ptr, ptr %4, align 8
  %16 = getelementptr inbounds nuw %"struct.std::_Deque_iterator", ptr %15, i32 0, i32 2
  %17 = load ptr, ptr %16, align 8
  store ptr %17, ptr %14, align 8
  %18 = getelementptr inbounds nuw %"struct.std::_Deque_iterator", ptr %5, i32 0, i32 3
  %19 = load ptr, ptr %4, align 8
  %20 = getelementptr inbounds nuw %"struct.std::_Deque_iterator", ptr %19, i32 0, i32 3
  %21 = load ptr, ptr %20, align 8
  store ptr %21, ptr %18, align 8
  ret void
}

; Function Attrs: noinline noreturn nounwind uwtable
define linkonce_odr hidden void @__clang_call_terminate(ptr noundef %0) #9 comdat {
  %2 = call ptr @__cxa_begin_catch(ptr %0) #16
  call void @_ZSt9terminatev() #19
  unreachable
}

; Function Attrs: mustprogress nounwind uwtable
define linkonce_odr dso_local void @_ZNSt5dequeImSaImEE15_M_pop_back_auxEv(ptr noundef nonnull align 8 dereferenceable(80) %0) #1 comdat align 2 {
  %2 = alloca ptr, align 8
  store ptr %0, ptr %2, align 8
  %3 = load ptr, ptr %2, align 8
  %4 = getelementptr inbounds nuw %"class.std::_Deque_base", ptr %3, i32 0, i32 0
  %5 = getelementptr inbounds nuw %"struct.std::_Deque_base<unsigned long, std::allocator<unsigned long>>::_Deque_impl_data", ptr %4, i32 0, i32 3
  %6 = getelementptr inbounds nuw %"struct.std::_Deque_iterator", ptr %5, i32 0, i32 1
  %7 = load ptr, ptr %6, align 8
  call void @_ZNSt11_Deque_baseImSaImEE18_M_deallocate_nodeEPm(ptr noundef nonnull align 8 dereferenceable(80) %3, ptr noundef %7) #16
  %8 = getelementptr inbounds nuw %"class.std::_Deque_base", ptr %3, i32 0, i32 0
  %9 = getelementptr inbounds nuw %"struct.std::_Deque_base<unsigned long, std::allocator<unsigned long>>::_Deque_impl_data", ptr %8, i32 0, i32 3
  %10 = getelementptr inbounds nuw %"class.std::_Deque_base", ptr %3, i32 0, i32 0
  %11 = getelementptr inbounds nuw %"struct.std::_Deque_base<unsigned long, std::allocator<unsigned long>>::_Deque_impl_data", ptr %10, i32 0, i32 3
  %12 = getelementptr inbounds nuw %"struct.std::_Deque_iterator", ptr %11, i32 0, i32 3
  %13 = load ptr, ptr %12, align 8
  %14 = getelementptr inbounds ptr, ptr %13, i64 -1
  call void @_ZNSt15_Deque_iteratorImRmPmE11_M_set_nodeEPS1_(ptr noundef nonnull align 8 dereferenceable(32) %9, ptr noundef %14) #16
  %15 = getelementptr inbounds nuw %"class.std::_Deque_base", ptr %3, i32 0, i32 0
  %16 = getelementptr inbounds nuw %"struct.std::_Deque_base<unsigned long, std::allocator<unsigned long>>::_Deque_impl_data", ptr %15, i32 0, i32 3
  %17 = getelementptr inbounds nuw %"struct.std::_Deque_iterator", ptr %16, i32 0, i32 2
  %18 = load ptr, ptr %17, align 8
  %19 = getelementptr inbounds i64, ptr %18, i64 -1
  %20 = getelementptr inbounds nuw %"class.std::_Deque_base", ptr %3, i32 0, i32 0
  %21 = getelementptr inbounds nuw %"struct.std::_Deque_base<unsigned long, std::allocator<unsigned long>>::_Deque_impl_data", ptr %20, i32 0, i32 3
  %22 = getelementptr inbounds nuw %"struct.std::_Deque_iterator", ptr %21, i32 0, i32 0
  store ptr %19, ptr %22, align 8
  %23 = call noundef nonnull align 1 dereferenceable(1) ptr @_ZNSt11_Deque_baseImSaImEE19_M_get_Tp_allocatorEv(ptr noundef nonnull align 8 dereferenceable(80) %3) #16
  %24 = getelementptr inbounds nuw %"class.std::_Deque_base", ptr %3, i32 0, i32 0
  %25 = getelementptr inbounds nuw %"struct.std::_Deque_base<unsigned long, std::allocator<unsigned long>>::_Deque_impl_data", ptr %24, i32 0, i32 3
  %26 = getelementptr inbounds nuw %"struct.std::_Deque_iterator", ptr %25, i32 0, i32 0
  %27 = load ptr, ptr %26, align 8
  call void @_ZNSt16allocator_traitsISaImEE7destroyImEEvRS0_PT_(ptr noundef nonnull align 1 dereferenceable(1) %23, ptr noundef %27) #16
  ret void
}

; Function Attrs: mustprogress nounwind uwtable
define linkonce_odr dso_local void @_ZNSt16allocator_traitsISaImEE7destroyImEEvRS0_PT_(ptr noundef nonnull align 1 dereferenceable(1) %0, ptr noundef %1) #1 comdat align 2 {
  %3 = alloca ptr, align 8
  %4 = alloca ptr, align 8
  store ptr %0, ptr %3, align 8
  store ptr %1, ptr %4, align 8
  %5 = load ptr, ptr %3, align 8
  %6 = load ptr, ptr %4, align 8
  call void @_ZNSt15__new_allocatorImE7destroyImEEvPT_(ptr noundef nonnull align 1 dereferenceable(1) %5, ptr noundef %6) #16
  ret void
}

; Function Attrs: mustprogress nounwind uwtable
define linkonce_odr dso_local noundef nonnull align 1 dereferenceable(1) ptr @_ZNSt11_Deque_baseImSaImEE19_M_get_Tp_allocatorEv(ptr noundef nonnull align 8 dereferenceable(80) %0) #1 comdat align 2 {
  %2 = alloca ptr, align 8
  store ptr %0, ptr %2, align 8
  %3 = load ptr, ptr %2, align 8
  %4 = getelementptr inbounds nuw %"class.std::_Deque_base", ptr %3, i32 0, i32 0
  ret ptr %4
}

; Function Attrs: mustprogress nounwind uwtable
define linkonce_odr dso_local noundef nonnull align 8 dereferenceable(8) ptr @_ZNKSt15_Deque_iteratorImRmPmEdeEv(ptr noundef nonnull align 8 dereferenceable(32) %0) #1 comdat align 2 {
  %2 = alloca ptr, align 8
  store ptr %0, ptr %2, align 8
  %3 = load ptr, ptr %2, align 8
  %4 = getelementptr inbounds nuw %"struct.std::_Deque_iterator", ptr %3, i32 0, i32 0
  %5 = load ptr, ptr %4, align 8
  ret ptr %5
}

; Function Attrs: mustprogress nounwind uwtable
define linkonce_odr dso_local noundef nonnull align 8 dereferenceable(32) ptr @_ZNSt15_Deque_iteratorImRmPmEmmEv(ptr noundef nonnull align 8 dereferenceable(32) %0) #1 comdat align 2 {
  %2 = alloca ptr, align 8
  store ptr %0, ptr %2, align 8
  %3 = load ptr, ptr %2, align 8
  %4 = getelementptr inbounds nuw %"struct.std::_Deque_iterator", ptr %3, i32 0, i32 0
  %5 = load ptr, ptr %4, align 8
  %6 = getelementptr inbounds nuw %"struct.std::_Deque_iterator", ptr %3, i32 0, i32 1
  %7 = load ptr, ptr %6, align 8
  %8 = icmp eq ptr %5, %7
  br i1 %8, label %9, label %16

9:                                                ; preds = %1
  %10 = getelementptr inbounds nuw %"struct.std::_Deque_iterator", ptr %3, i32 0, i32 3
  %11 = load ptr, ptr %10, align 8
  %12 = getelementptr inbounds ptr, ptr %11, i64 -1
  call void @_ZNSt15_Deque_iteratorImRmPmE11_M_set_nodeEPS1_(ptr noundef nonnull align 8 dereferenceable(32) %3, ptr noundef %12) #16
  %13 = getelementptr inbounds nuw %"struct.std::_Deque_iterator", ptr %3, i32 0, i32 2
  %14 = load ptr, ptr %13, align 8
  %15 = getelementptr inbounds nuw %"struct.std::_Deque_iterator", ptr %3, i32 0, i32 0
  store ptr %14, ptr %15, align 8
  br label %16

16:                                               ; preds = %9, %1
  %17 = getelementptr inbounds nuw %"struct.std::_Deque_iterator", ptr %3, i32 0, i32 0
  %18 = load ptr, ptr %17, align 8
  %19 = getelementptr inbounds i64, ptr %18, i32 -1
  store ptr %19, ptr %17, align 8
  ret ptr %3
}

; Function Attrs: mustprogress nounwind uwtable
define linkonce_odr dso_local void @_ZNSt5dequeImSaImEE3endEv(ptr dead_on_unwind noalias writable sret(%"struct.std::_Deque_iterator") align 8 %0, ptr noundef nonnull align 8 dereferenceable(80) %1) #1 comdat align 2 {
  %3 = alloca ptr, align 8
  %4 = alloca ptr, align 8
  store ptr %0, ptr %3, align 8
  store ptr %1, ptr %4, align 8
  %5 = load ptr, ptr %4, align 8
  %6 = getelementptr inbounds nuw %"class.std::_Deque_base", ptr %5, i32 0, i32 0
  %7 = getelementptr inbounds nuw %"struct.std::_Deque_base<unsigned long, std::allocator<unsigned long>>::_Deque_impl_data", ptr %6, i32 0, i32 3
  call void @_ZNSt15_Deque_iteratorImRmPmEC2ERKS2_(ptr noundef nonnull align 8 dereferenceable(32) %0, ptr noundef nonnull align 8 dereferenceable(32) %7) #16
  ret void
}

; Function Attrs: mustprogress nounwind uwtable
define linkonce_odr dso_local void @_ZNSt5dequeImSaImEE8pop_backEv(ptr noundef nonnull align 8 dereferenceable(80) %0) #1 comdat align 2 personality ptr @__gxx_personality_v0 {
  %2 = alloca ptr, align 8
  store ptr %0, ptr %2, align 8
  %3 = load ptr, ptr %2, align 8
  %4 = getelementptr inbounds nuw %"class.std::_Deque_base", ptr %3, i32 0, i32 0
  %5 = getelementptr inbounds nuw %"struct.std::_Deque_base<unsigned long, std::allocator<unsigned long>>::_Deque_impl_data", ptr %4, i32 0, i32 3
  %6 = getelementptr inbounds nuw %"struct.std::_Deque_iterator", ptr %5, i32 0, i32 0
  %7 = load ptr, ptr %6, align 8
  %8 = getelementptr inbounds nuw %"class.std::_Deque_base", ptr %3, i32 0, i32 0
  %9 = getelementptr inbounds nuw %"struct.std::_Deque_base<unsigned long, std::allocator<unsigned long>>::_Deque_impl_data", ptr %8, i32 0, i32 3
  %10 = getelementptr inbounds nuw %"struct.std::_Deque_iterator", ptr %9, i32 0, i32 1
  %11 = load ptr, ptr %10, align 8
  %12 = icmp ne ptr %7, %11
  br i1 %12, label %13, label %24

13:                                               ; preds = %1
  %14 = getelementptr inbounds nuw %"class.std::_Deque_base", ptr %3, i32 0, i32 0
  %15 = getelementptr inbounds nuw %"struct.std::_Deque_base<unsigned long, std::allocator<unsigned long>>::_Deque_impl_data", ptr %14, i32 0, i32 3
  %16 = getelementptr inbounds nuw %"struct.std::_Deque_iterator", ptr %15, i32 0, i32 0
  %17 = load ptr, ptr %16, align 8
  %18 = getelementptr inbounds i64, ptr %17, i32 -1
  store ptr %18, ptr %16, align 8
  %19 = call noundef nonnull align 1 dereferenceable(1) ptr @_ZNSt11_Deque_baseImSaImEE19_M_get_Tp_allocatorEv(ptr noundef nonnull align 8 dereferenceable(80) %3) #16
  %20 = getelementptr inbounds nuw %"class.std::_Deque_base", ptr %3, i32 0, i32 0
  %21 = getelementptr inbounds nuw %"struct.std::_Deque_base<unsigned long, std::allocator<unsigned long>>::_Deque_impl_data", ptr %20, i32 0, i32 3
  %22 = getelementptr inbounds nuw %"struct.std::_Deque_iterator", ptr %21, i32 0, i32 0
  %23 = load ptr, ptr %22, align 8
  call void @_ZNSt16allocator_traitsISaImEE7destroyImEEvRS0_PT_(ptr noundef nonnull align 1 dereferenceable(1) %19, ptr noundef %23) #16
  br label %26

24:                                               ; preds = %1
  invoke void @_ZNSt5dequeImSaImEE15_M_pop_back_auxEv(ptr noundef nonnull align 8 dereferenceable(80) %3)
          to label %25 unwind label %27

25:                                               ; preds = %24
  br label %26

26:                                               ; preds = %25, %13
  ret void

27:                                               ; preds = %24
  %28 = landingpad { ptr, i32 }
          catch ptr null
  %29 = extractvalue { ptr, i32 } %28, 0
  call void @__clang_call_terminate(ptr %29) #19
  unreachable
}

; Function Attrs: mustprogress nounwind uwtable
define linkonce_odr dso_local noundef nonnull align 8 dereferenceable(8) ptr @_ZNSt5dequeImSaImEE4backEv(ptr noundef nonnull align 8 dereferenceable(80) %0) #1 comdat align 2 {
  %2 = alloca ptr, align 8
  %3 = alloca %"struct.std::_Deque_iterator", align 8
  store ptr %0, ptr %2, align 8
  %4 = load ptr, ptr %2, align 8
  call void @llvm.lifetime.start.p0(i64 32, ptr %3) #16
  call void @_ZNSt5dequeImSaImEE3endEv(ptr dead_on_unwind writable sret(%"struct.std::_Deque_iterator") align 8 %3, ptr noundef nonnull align 8 dereferenceable(80) %4) #16
  %5 = call noundef nonnull align 8 dereferenceable(32) ptr @_ZNSt15_Deque_iteratorImRmPmEmmEv(ptr noundef nonnull align 8 dereferenceable(32) %3) #16
  %6 = call noundef nonnull align 8 dereferenceable(8) ptr @_ZNKSt15_Deque_iteratorImRmPmEdeEv(ptr noundef nonnull align 8 dereferenceable(32) %3) #16
  call void @llvm.lifetime.end.p0(i64 32, ptr %3) #16
  ret ptr %6
}

; Function Attrs: inlinehint mustprogress nounwind uwtable
define linkonce_odr dso_local noundef nonnull align 4 dereferenceable(4) ptr @_ZSt3maxIjERKT_S2_S2_(ptr noundef nonnull align 4 dereferenceable(4) %0, ptr noundef nonnull align 4 dereferenceable(4) %1) #7 comdat {
  %3 = alloca ptr, align 8
  %4 = alloca ptr, align 8
  %5 = alloca ptr, align 8
  store ptr %0, ptr %4, align 8
  store ptr %1, ptr %5, align 8
  %6 = load ptr, ptr %4, align 8
  %7 = load i32, ptr %6, align 4
  %8 = load ptr, ptr %5, align 8
  %9 = load i32, ptr %8, align 4
  %10 = icmp ult i32 %7, %9
  br i1 %10, label %11, label %13

11:                                               ; preds = %2
  %12 = load ptr, ptr %5, align 8
  store ptr %12, ptr %3, align 8
  br label %15

13:                                               ; preds = %2
  %14 = load ptr, ptr %4, align 8
  store ptr %14, ptr %3, align 8
  br label %15

15:                                               ; preds = %13, %11
  %16 = load ptr, ptr %3, align 8
  ret ptr %16
}

; Function Attrs: mustprogress nounwind uwtable
define linkonce_odr dso_local void @_ZNSt5stackImSt5dequeImSaImEEE3popEv(ptr noundef nonnull align 8 dereferenceable(80) %0) #1 comdat align 2 {
  %2 = alloca ptr, align 8
  store ptr %0, ptr %2, align 8
  %3 = load ptr, ptr %2, align 8
  %4 = getelementptr inbounds nuw %"class.std::stack", ptr %3, i32 0, i32 0
  call void @_ZNSt5dequeImSaImEE8pop_backEv(ptr noundef nonnull align 8 dereferenceable(80) %4) #16
  ret void
}

; Function Attrs: mustprogress nounwind uwtable
define linkonce_odr dso_local noundef nonnull align 8 dereferenceable(8) ptr @_ZNSt5stackImSt5dequeImSaImEEE3topEv(ptr noundef nonnull align 8 dereferenceable(80) %0) #1 comdat align 2 {
  %2 = alloca ptr, align 8
  store ptr %0, ptr %2, align 8
  %3 = load ptr, ptr %2, align 8
  %4 = getelementptr inbounds nuw %"class.std::stack", ptr %3, i32 0, i32 0
  %5 = call noundef nonnull align 8 dereferenceable(8) ptr @_ZNSt5dequeImSaImEE4backEv(ptr noundef nonnull align 8 dereferenceable(80) %4) #16
  ret ptr %5
}

; Function Attrs: mustprogress uwtable
define internal void @_ZN3ue212_GLOBAL__N_119SafeReferentVisitor4postERKNS_15ComponentRepeatE(ptr noundef nonnull align 8 dereferenceable(96) %0, ptr noundef nonnull align 8 dereferenceable(96) %1) unnamed_addr #3 align 2 {
  %3 = alloca ptr, align 8
  %4 = alloca ptr, align 8
  %5 = alloca i64, align 8
  %6 = alloca %"struct.std::pair", align 4
  %7 = alloca i64, align 8
  %8 = alloca i64, align 8
  %9 = alloca i32, align 4
  store ptr %0, ptr %3, align 8
  store ptr %1, ptr %4, align 8
  %10 = load ptr, ptr %3, align 8
  call void @llvm.lifetime.start.p0(i64 8, ptr %5) #16
  %11 = getelementptr inbounds nuw %"class.ue2::(anonymous namespace)::SafeReferentVisitor", ptr %10, i32 0, i32 2
  %12 = call noundef nonnull align 8 dereferenceable(8) ptr @_ZNSt5stackImSt5dequeImSaImEEE3topEv(ptr noundef nonnull align 8 dereferenceable(80) %11)
  %13 = load i64, ptr %12, align 8
  store i64 %13, ptr %5, align 8
  %14 = getelementptr inbounds nuw %"class.ue2::(anonymous namespace)::SafeReferentVisitor", ptr %10, i32 0, i32 2
  call void @_ZNSt5stackImSt5dequeImSaImEEE3popEv(ptr noundef nonnull align 8 dereferenceable(80) %14)
  call void @llvm.lifetime.start.p0(i64 8, ptr %6) #16
  %15 = load ptr, ptr %4, align 8
  %16 = load ptr, ptr %15, align 8
  %17 = getelementptr inbounds ptr, ptr %16, i64 15
  %18 = load ptr, ptr %17, align 8
  %19 = call i64 %18(ptr noundef nonnull align 8 dereferenceable(96) %15)
  store i64 %19, ptr %6, align 4
  call void @llvm.lifetime.start.p0(i64 8, ptr %7) #16
  %20 = getelementptr inbounds nuw %"class.ue2::(anonymous namespace)::SafeReferentVisitor", ptr %10, i32 0, i32 1
  %21 = load i64, ptr %20, align 8
  %22 = load i64, ptr %5, align 8
  %23 = sub i64 %21, %22
  store i64 %23, ptr %7, align 8
  call void @llvm.lifetime.start.p0(i64 8, ptr %8) #16
  %24 = getelementptr inbounds nuw %"struct.std::pair", ptr %6, i32 0, i32 1
  %25 = load i32, ptr %24, align 4
  %26 = icmp ult i32 %25, -1
  call void @llvm.lifetime.start.p0(i64 4, ptr %9) #16
  br i1 %26, label %27, label %30

27:                                               ; preds = %2
  %28 = getelementptr inbounds nuw %"struct.std::pair", ptr %6, i32 0, i32 1
  %29 = load i32, ptr %28, align 4
  br label %34

30:                                               ; preds = %2
  %31 = getelementptr inbounds nuw %"struct.std::pair", ptr %6, i32 0, i32 0
  store i32 1, ptr %9, align 4
  %32 = call noundef nonnull align 4 dereferenceable(4) ptr @_ZSt3maxIjERKT_S2_S2_(ptr noundef nonnull align 4 dereferenceable(4) %31, ptr noundef nonnull align 4 dereferenceable(4) %9)
  %33 = load i32, ptr %32, align 4
  br label %34

34:                                               ; preds = %30, %27
  %35 = phi i32 [ %29, %27 ], [ %33, %30 ]
  %36 = zext i32 %35 to i64
  call void @llvm.lifetime.end.p0(i64 4, ptr %9) #16
  store i64 %36, ptr %8, align 8
  %37 = load i64, ptr %5, align 8
  %38 = load i64, ptr %7, align 8
  %39 = load i64, ptr %8, align 8
  %40 = mul i64 %38, %39
  %41 = add i64 %37, %40
  %42 = getelementptr inbounds nuw %"class.ue2::(anonymous namespace)::SafeReferentVisitor", ptr %10, i32 0, i32 1
  store i64 %41, ptr %42, align 8
  call void @llvm.lifetime.end.p0(i64 8, ptr %8) #16
  call void @llvm.lifetime.end.p0(i64 8, ptr %7) #16
  call void @llvm.lifetime.end.p0(i64 8, ptr %6) #16
  call void @llvm.lifetime.end.p0(i64 8, ptr %5) #16
  ret void
}