; Function Attrs: mustprogress uwtable
define internal void @_ZN3ue212_GLOBAL__N_119SafeReferentVisitor4postERKNS_15ComponentRepeatE(ptr noundef nonnull align 8 captures(none) dereferenceable(96) %0, ptr noundef nonnull align 8 dereferenceable(96) %1) unnamed_addr #3 align 2 personality ptr @__gxx_personality_v0 {
  %3 = getelementptr inbounds nuw i8, ptr %0, i64 64
  %4 = load ptr, ptr %3, align 8, !noalias !15
  %5 = getelementptr inbounds nuw i8, ptr %0, i64 72
  %6 = load ptr, ptr %5, align 8, !noalias !15
  %7 = icmp eq ptr %4, %6
  br i1 %7, label %11, label %8

8:                                                ; preds = %2
  %9 = getelementptr inbounds i8, ptr %4, i64 -8
  %10 = load i64, ptr %9, align 8
  br label %_ZNSt5stackImSt5dequeImSaImEEE3popEv.exit

11:                                               ; preds = %2
  %12 = getelementptr inbounds nuw i8, ptr %0, i64 88
  %13 = load ptr, ptr %12, align 8, !noalias !15
  %14 = getelementptr inbounds i8, ptr %13, i64 -8
  %15 = load ptr, ptr %14, align 8
  %16 = getelementptr inbounds nuw i8, ptr %15, i64 504
  %17 = load i64, ptr %16, align 8
  tail call void @_ZdlPv(ptr noundef %6) #21
  %18 = load ptr, ptr %12, align 8
  %19 = getelementptr inbounds i8, ptr %18, i64 -8
  store ptr %19, ptr %12, align 8
  %20 = load ptr, ptr %19, align 8
  store ptr %20, ptr %5, align 8
  %21 = getelementptr inbounds nuw i8, ptr %20, i64 512
  %22 = getelementptr inbounds nuw i8, ptr %0, i64 80
  store ptr %21, ptr %22, align 8
  %23 = getelementptr inbounds nuw i8, ptr %20, i64 504
  br label %_ZNSt5stackImSt5dequeImSaImEEE3popEv.exit

_ZNSt5stackImSt5dequeImSaImEEE3popEv.exit:        ; preds = %8, %11
  %24 = phi i64 [ %10, %8 ], [ %17, %11 ]
  %storemerge.i.i = phi ptr [ %9, %8 ], [ %23, %11 ]
  store ptr %storemerge.i.i, ptr %3, align 8
  %25 = load ptr, ptr %1, align 8
  %26 = getelementptr inbounds nuw i8, ptr %25, i64 120
  %27 = load ptr, ptr %26, align 8
  %28 = tail call i64 %27(ptr noundef nonnull align 8 dereferenceable(96) %1)
  %.sroa.0.0.extract.trunc = trunc i64 %28 to i32
  %.sroa.5.0.extract.shift = lshr i64 %28, 32
  %.sroa.5.0.extract.trunc = trunc nuw i64 %.sroa.5.0.extract.shift to i32
  %29 = getelementptr inbounds nuw i8, ptr %0, i64 8
  %30 = load i64, ptr %29, align 8
  %.not = icmp eq i64 %.sroa.5.0.extract.shift, 4294967295
  %.sroa.speculated = tail call i32 @llvm.umax.i32(i32 %.sroa.0.0.extract.trunc, i32 1)
  %31 = select i1 %.not, i32 %.sroa.speculated, i32 %.sroa.5.0.extract.trunc
  %32 = sub i64 %30, %24
  %33 = zext i32 %31 to i64
  %34 = mul i64 %32, %33
  %35 = add i64 %34, %24
  store i64 %35, ptr %29, align 8
  ret void
}